target datalayout = "e-m:e-p270:32:32-p271:32:32-p272:64:64-i64:64-i128:128-f80:128-n8:16:32:64-S128"
target triple = "x86_64-pc-linux-gnu"

%struct.encoding_map = type { ptr, i32 }
%struct.message = type { ptr, i32, i32, ptr, ptr, ptr, ptr, ptr, ptr, i64, i32, ptr, ptr, ptr, ptr, ptr, i8, i8, i8, i8, ptr }

@.str.37 = private unnamed_addr constant [83 x i8] c"Internal email parser error: invalid arguments when setting message encoding type\0A\00", align 1
@.str.38 = private unnamed_addr constant [26 x i8] c"messageSetEncoding: '%s'\0A\00", align 1
@.str.39 = private unnamed_addr constant [6 x i8] c"8 bit\00", align 1
@.str.40 = private unnamed_addr constant [61 x i8] c"Broken content-transfer-encoding: '8 bit' changed to '8bit'\0A\00", align 1
@.str.41 = private unnamed_addr constant [5 x i8] c"8bit\00", align 1
@.str.42 = private unnamed_addr constant [3 x i8] c" \09\00", align 1
@.str.43 = private unnamed_addr constant [9 x i8] c"uuencode\00", align 1
@.str.44 = private unnamed_addr constant [44 x i8] c"Ignoring duplicate encoding mechanism '%s'\0A\00", align 1
@.str.45 = private unnamed_addr constant [26 x i8] c"Encoding type %d is \22%s\22\0A\00", align 1
@.str.46 = private unnamed_addr constant [62 x i8] c"Unknown encoding type \22%s\22 - guessing as %s (%u%% certainty)\0A\00", align 1
@.str.47 = private unnamed_addr constant [101 x i8] c"Unknown encoding type \22%s\22 - if you believe this file contains a virus, submit it to www.clamav.net\0A\00", align 1
@.str.48 = private unnamed_addr constant [7 x i8] c"base64\00", align 1
@.str.49 = private unnamed_addr constant [17 x i8] c"quoted-printable\00", align 1

; Function Attrs: nounwind uwtable
define void @messageSetEncoding(ptr noundef %0, ptr noundef %1) #0 {
  %3 = alloca ptr, align 8
  %4 = alloca ptr, align 8
  %5 = alloca ptr, align 8
  %6 = alloca i32, align 4
  %7 = alloca ptr, align 8
  %8 = alloca i32, align 4
  %9 = alloca ptr, align 8
  %10 = alloca i32, align 4
  %11 = alloca i8, align 1
  %12 = alloca i32, align 4
  %13 = alloca ptr, align 8
  store ptr %0, ptr %3, align 8
  store ptr %1, ptr %4, align 8
  %14 = load ptr, ptr %3, align 8
  %15 = icmp eq ptr %14, null
  br i1 %15, label %19, label %16

16:                                               ; preds = %2
  %17 = load ptr, ptr %4, align 8
  %18 = icmp eq ptr %17, null
  br i1 %18, label %19, label %20

19:                                               ; preds = %16, %2
  call void (ptr, ...) @cli_errmsg(ptr noundef @.str.37)
  br label %193

20:                                               ; preds = %16
  br label %21

21:                                               ; preds = %33, %20
  %22 = call ptr @__ctype_b_loc() #12
  %23 = load ptr, ptr %22, align 8
  %24 = load ptr, ptr %4, align 8
  %25 = load i8, ptr %24, align 1
  %26 = sext i8 %25 to i32
  %27 = sext i32 %26 to i64
  %28 = getelementptr inbounds i16, ptr %23, i64 %27
  %29 = load i16, ptr %28, align 2
  %30 = zext i16 %29 to i32
  %31 = and i32 %30, 1
  %32 = icmp ne i32 %31, 0
  br i1 %32, label %33, label %36

33:                                               ; preds = %21
  %34 = load ptr, ptr %4, align 8
  %35 = getelementptr inbounds i8, ptr %34, i32 1
  store ptr %35, ptr %4, align 8
  br label %21

36:                                               ; preds = %21
  %37 = load ptr, ptr %4, align 8
  call void (ptr, ...) @cli_dbgmsg(ptr noundef @.str.38, ptr noundef %37)
  %38 = load ptr, ptr %4, align 8
  %39 = call i32 @strcasecmp(ptr noundef %38, ptr noundef @.str.39) #13
  %40 = icmp eq i32 %39, 0
  br i1 %40, label %41, label %42

41:                                               ; preds = %36
  call void (ptr, ...) @cli_dbgmsg(ptr noundef @.str.40)
  store ptr @.str.41, ptr %4, align 8
  br label %42

42:                                               ; preds = %41, %36
  store i32 0, ptr %6, align 4
  br label %43

43:                                               ; preds = %191, %42
  %44 = load ptr, ptr %4, align 8
  %45 = load i32, ptr %6, align 4
  %46 = add nsw i32 %45, 1
  store i32 %46, ptr %6, align 4
  %47 = call ptr @cli_strtok(ptr noundef %44, i32 noundef %45, ptr noundef @.str.42)
  store ptr %47, ptr %7, align 8
  %48 = icmp ne ptr %47, null
  br i1 %48, label %49, label %193

49:                                               ; preds = %43
  store i32 0, ptr %8, align 4
  store ptr null, ptr %9, align 8
  store ptr @encoding_map, ptr %5, align 8
  br label %50

50:                                               ; preds = %169, %49
  %51 = load ptr, ptr %5, align 8
  %52 = getelementptr inbounds %struct.encoding_map, ptr %51, i32 0, i32 0
  %53 = load ptr, ptr %52, align 8
  %54 = icmp ne ptr %53, null
  br i1 %54, label %55, label %172

55:                                               ; preds = %50
  %56 = load ptr, ptr %7, align 8
  %57 = getelementptr inbounds i8, ptr %56, i64 0
  %58 = load i8, ptr %57, align 1
  %59 = sext i8 %58 to i32
  %60 = call i32 @tolower(i32 noundef %59) #13
  %61 = trunc i32 %60 to i8
  store i8 %61, ptr %11, align 1
  %62 = load i8, ptr %11, align 1
  %63 = sext i8 %62 to i32
  %64 = load ptr, ptr %5, align 8
  %65 = getelementptr inbounds %struct.encoding_map, ptr %64, i32 0, i32 0
  %66 = load ptr, ptr %65, align 8
  %67 = getelementptr inbounds i8, ptr %66, i64 0
  %68 = load i8, ptr %67, align 1
  %69 = sext i8 %68 to i32
  %70 = call i32 @tolower(i32 noundef %69) #13
  %71 = icmp ne i32 %63, %70
  br i1 %71, label %72, label %77

72:                                               ; preds = %55
  %73 = load i8, ptr %11, align 1
  %74 = sext i8 %73 to i32
  %75 = icmp ne i32 %74, 120
  br i1 %75, label %76, label %77

76:                                               ; preds = %72
  br label %169

77:                                               ; preds = %72, %55
  %78 = load ptr, ptr %5, align 8
  %79 = getelementptr inbounds %struct.encoding_map, ptr %78, i32 0, i32 0
  %80 = load ptr, ptr %79, align 8
  %81 = call i32 @strcmp(ptr noundef %80, ptr noundef @.str.43) #13
  %82 = icmp eq i32 %81, 0
  br i1 %82, label %83, label %84

83:                                               ; preds = %77
  br label %169

84:                                               ; preds = %77
  %85 = load ptr, ptr %7, align 8
  %86 = load ptr, ptr %5, align 8
  %87 = getelementptr inbounds %struct.encoding_map, ptr %86, i32 0, i32 0
  %88 = load ptr, ptr %87, align 8
  %89 = call i32 @simil(ptr noundef %85, ptr noundef %88)
  store i32 %89, ptr %10, align 4
  %90 = load i32, ptr %10, align 4
  %91 = icmp eq i32 %90, 100
  br i1 %91, label %92, label %158

92:                                               ; preds = %84
  store i32 0, ptr %12, align 4
  br label %93

93:                                               ; preds = %113, %92
  %94 = load i32, ptr %12, align 4
  %95 = load ptr, ptr %3, align 8
  %96 = getelementptr inbounds %struct.message, ptr %95, i32 0, i32 2
  %97 = load i32, ptr %96, align 4
  %98 = icmp slt i32 %94, %97
  br i1 %98, label %99, label %116

99:                                               ; preds = %93
  %100 = load ptr, ptr %3, align 8
  %101 = getelementptr inbounds %struct.message, ptr %100, i32 0, i32 0
  %102 = load ptr, ptr %101, align 8
  %103 = load i32, ptr %12, align 4
  %104 = sext i32 %103 to i64
  %105 = getelementptr inbounds i32, ptr %102, i64 %104
  %106 = load i32, ptr %105, align 4
  %107 = load ptr, ptr %5, align 8
  %108 = getelementptr inbounds %struct.encoding_map, ptr %107, i32 0, i32 1
  %109 = load i32, ptr %108, align 8
  %110 = icmp eq i32 %106, %109
  br i1 %110, label %111, label %112

111:                                              ; preds = %99
  br label %116

112:                                              ; preds = %99
  br label %113

113:                                              ; preds = %112
  %114 = load i32, ptr %12, align 4
  %115 = add nsw i32 %114, 1
  store i32 %115, ptr %12, align 4
  br label %93

116:                                              ; preds = %111, %93
  %117 = load i32, ptr %12, align 4
  %118 = load ptr, ptr %3, align 8
  %119 = getelementptr inbounds %struct.message, ptr %118, i32 0, i32 2
  %120 = load i32, ptr %119, align 4
  %121 = icmp slt i32 %117, %120
  br i1 %121, label %122, label %124

122:                                              ; preds = %116
  %123 = load ptr, ptr %7, align 8
  call void (ptr, ...) @cli_dbgmsg(ptr noundef @.str.44, ptr noundef %123)
  br label %172

124:                                              ; preds = %116
  %125 = load ptr, ptr %3, align 8
  %126 = getelementptr inbounds %struct.message, ptr %125, i32 0, i32 0
  %127 = load ptr, ptr %126, align 8
  %128 = load ptr, ptr %3, align 8
  %129 = getelementptr inbounds %struct.message, ptr %128, i32 0, i32 2
  %130 = load i32, ptr %129, align 4
  %131 = add nsw i32 %130, 1
  %132 = sext i32 %131 to i64
  %133 = mul i64 %132, 4
  %134 = call ptr @cli_max_realloc(ptr noundef %127, i64 noundef %133)
  store ptr %134, ptr %13, align 8
  %135 = load ptr, ptr %13, align 8
  %136 = icmp eq ptr %135, null
  br i1 %136, label %137, label %138

137:                                              ; preds = %124
  br label %172

138:                                              ; preds = %124
  %139 = load ptr, ptr %13, align 8
  %140 = load ptr, ptr %3, align 8
  %141 = getelementptr inbounds %struct.message, ptr %140, i32 0, i32 0
  store ptr %139, ptr %141, align 8
  %142 = load ptr, ptr %5, align 8
  %143 = getelementptr inbounds %struct.encoding_map, ptr %142, i32 0, i32 1
  %144 = load i32, ptr %143, align 8
  %145 = load ptr, ptr %3, align 8
  %146 = getelementptr inbounds %struct.message, ptr %145, i32 0, i32 0
  %147 = load ptr, ptr %146, align 8
  %148 = load ptr, ptr %3, align 8
  %149 = getelementptr inbounds %struct.message, ptr %148, i32 0, i32 2
  %150 = load i32, ptr %149, align 4
  %151 = add nsw i32 %150, 1
  store i32 %151, ptr %149, align 4
  %152 = sext i32 %150 to i64
  %153 = getelementptr inbounds i32, ptr %147, i64 %152
  store i32 %144, ptr %153, align 4
  %154 = load ptr, ptr %3, align 8
  %155 = getelementptr inbounds %struct.message, ptr %154, i32 0, i32 2
  %156 = load i32, ptr %155, align 4
  %157 = load ptr, ptr %7, align 8
  call void (ptr, ...) @cli_dbgmsg(ptr noundef @.str.45, i32 noundef %156, ptr noundef %157)
  br label %172

158:                                              ; preds = %84
  %159 = load i32, ptr %10, align 4
  %160 = load i32, ptr %8, align 4
  %161 = icmp sgt i32 %159, %160
  br i1 %161, label %162, label %167

162:                                              ; preds = %158
  %163 = load ptr, ptr %5, align 8
  %164 = getelementptr inbounds %struct.encoding_map, ptr %163, i32 0, i32 0
  %165 = load ptr, ptr %164, align 8
  store ptr %165, ptr %9, align 8
  %166 = load i32, ptr %10, align 4
  store i32 %166, ptr %8, align 4
  br label %167

167:                                              ; preds = %162, %158
  br label %168

168:                                              ; preds = %167
  br label %169

169:                                              ; preds = %168, %83, %76
  %170 = load ptr, ptr %5, align 8
  %171 = getelementptr inbounds %struct.encoding_map, ptr %170, i32 1
  store ptr %171, ptr %5, align 8
  br label %50

172:                                              ; preds = %138, %137, %122, %50
  %173 = load ptr, ptr %5, align 8
  %174 = getelementptr inbounds %struct.encoding_map, ptr %173, i32 0, i32 0
  %175 = load ptr, ptr %174, align 8
  %176 = icmp eq ptr %175, null
  br i1 %176, label %177, label %191

177:                                              ; preds = %172
  %178 = load i32, ptr %8, align 4
  %179 = icmp sge i32 %178, 50
  br i1 %179, label %180, label %186

180:                                              ; preds = %177
  %181 = load ptr, ptr %7, align 8
  %182 = load ptr, ptr %9, align 8
  %183 = load i32, ptr %8, align 4
  call void (ptr, ...) @cli_dbgmsg(ptr noundef @.str.46, ptr noundef %181, ptr noundef %182, i32 noundef %183)
  %184 = load ptr, ptr %3, align 8
  %185 = load ptr, ptr %9, align 8
  call void @messageSetEncoding(ptr noundef %184, ptr noundef %185)
  br label %190

186:                                              ; preds = %177
  %187 = load ptr, ptr %7, align 8
  call void (ptr, ...) @cli_dbgmsg(ptr noundef @.str.47, ptr noundef %187)
  %188 = load ptr, ptr %3, align 8
  call void @messageSetEncoding(ptr noundef %188, ptr noundef @.str.48)
  %189 = load ptr, ptr %3, align 8
  call void @messageSetEncoding(ptr noundef %189, ptr noundef @.str.49)
  br label %190

190:                                              ; preds = %186, %180
  br label %191

191:                                              ; preds = %190, %172
  %192 = load ptr, ptr %7, align 8
  call void @free(ptr noundef %192) #11
  br label %43

193:                                              ; preds = %43, %19
  ret void
}