; Function Attrs: nounwind uwtable
define void @messageSetEncoding(ptr noundef %0, ptr noundef %1) local_unnamed_addr #2 {
  %3 = icmp eq ptr %0, null
  %4 = icmp eq ptr %1, null
  %or.cond = or i1 %3, %4
  br i1 %or.cond, label %7, label %.preheader73

.preheader73:                                     ; preds = %2
  %5 = tail call ptr @__ctype_b_loc() #22
  %6 = load ptr, ptr %5, align 8
  br label %8

7:                                                ; preds = %2
  tail call void (ptr, ...) @cli_errmsg(ptr noundef nonnull @.str.37) #21
  br label %.loopexit

8:                                                ; preds = %8, %.preheader73
  %.0 = phi ptr [ %14, %8 ], [ %1, %.preheader73 ]
  %9 = load i8, ptr %.0, align 1
  %10 = sext i8 %9 to i64
  %11 = getelementptr inbounds i16, ptr %6, i64 %10
  %12 = load i16, ptr %11, align 2
  %13 = and i16 %12, 1
  %.not = icmp eq i16 %13, 0
  %14 = getelementptr inbounds i8, ptr %.0, i64 1
  br i1 %.not, label %15, label %8

15:                                               ; preds = %8
  tail call void (ptr, ...) @cli_dbgmsg(ptr noundef nonnull @.str.38, ptr noundef nonnull %.0) #21
  %16 = tail call i32 @strcasecmp(ptr noundef nonnull %.0, ptr noundef nonnull @.str.39) #23
  %17 = icmp eq i32 %16, 0
  br i1 %17, label %18, label %19

18:                                               ; preds = %15
  tail call void (ptr, ...) @cli_dbgmsg(ptr noundef nonnull @.str.40) #21
  br label %19

19:                                               ; preds = %18, %15
  %.1 = phi ptr [ @.str.41, %18 ], [ %.0, %15 ]
  %20 = tail call ptr @cli_strtok(ptr noundef nonnull %.1, i32 noundef 0, ptr noundef nonnull @.str.42) #21
  %.not6886 = icmp eq ptr %20, null
  br i1 %.not6886, label %.loopexit, label %.preheader72.lr.ph

.preheader72.lr.ph:                               ; preds = %19
  %21 = getelementptr inbounds i8, ptr %0, i64 12
  br label %.preheader72

.preheader72:                                     ; preds = %.preheader72.lr.ph, %72
  %22 = phi ptr [ %20, %.preheader72.lr.ph ], [ %74, %72 ]
  %23 = phi i32 [ 1, %.preheader72.lr.ph ], [ %73, %72 ]
  br label %24

24:                                               ; preds = %.preheader72, %66
  %25 = phi ptr [ @.str.83, %.preheader72 ], [ %68, %66 ]
  %.05684 = phi ptr [ @encoding_map, %.preheader72 ], [ %67, %66 ]
  %.05883 = phi ptr [ null, %.preheader72 ], [ %.159, %66 ]
  %.06082 = phi i32 [ 0, %.preheader72 ], [ %.161, %66 ]
  %26 = load i8, ptr %22, align 1
  %27 = sext i8 %26 to i32
  %28 = tail call i32 @tolower(i32 noundef %27) #23
  %sext = shl i32 %28, 24
  %29 = ashr exact i32 %sext, 24
  %30 = load i8, ptr %25, align 1
  %31 = sext i8 %30 to i32
  %32 = tail call i32 @tolower(i32 noundef %31) #23
  %33 = icmp ne i32 %29, %32
  %34 = icmp ne i32 %sext, 2013265920
  %or.cond4 = and i1 %34, %33
  br i1 %or.cond4, label %66, label %35

35:                                               ; preds = %24
  %36 = tail call i32 @strcmp(ptr noundef nonnull dereferenceable(1) %25, ptr noundef nonnull dereferenceable(9) @.str.43) #23
  %37 = icmp eq i32 %36, 0
  br i1 %37, label %66, label %38

38:                                               ; preds = %35
  %39 = tail call fastcc i32 @simil(ptr noundef nonnull %22, ptr noundef nonnull %25)
  %40 = icmp eq i32 %39, 100
  br i1 %40, label %.preheader, label %64

.preheader:                                       ; preds = %38
  %41 = load i32, ptr %21, align 4
  %42 = icmp sgt i32 %41, 0
  %.pre = load ptr, ptr %0, align 8
  br i1 %42, label %.lr.ph, label %._crit_edge

.lr.ph:                                           ; preds = %.preheader
  %43 = getelementptr inbounds i8, ptr %.05684, i64 8
  %44 = load i32, ptr %43, align 8
  %wide.trip.count = zext nneg i32 %41 to i64
  br label %46

45:                                               ; preds = %46
  %indvars.iv.next = add nuw nsw i64 %indvars.iv, 1
  %exitcond.not = icmp eq i64 %indvars.iv.next, %wide.trip.count
  br i1 %exitcond.not, label %._crit_edge, label %46

46:                                               ; preds = %.lr.ph, %45
  %indvars.iv = phi i64 [ 0, %.lr.ph ], [ %indvars.iv.next, %45 ]
  %47 = getelementptr inbounds i32, ptr %.pre, i64 %indvars.iv
  %48 = load i32, ptr %47, align 4
  %49 = icmp eq i32 %48, %44
  br i1 %49, label %50, label %45

50:                                               ; preds = %46
  tail call void (ptr, ...) @cli_dbgmsg(ptr noundef nonnull @.str.44, ptr noundef nonnull %22) #21
  br label %72

._crit_edge:                                      ; preds = %45, %.preheader
  %51 = add nsw i32 %41, 1
  %52 = sext i32 %51 to i64
  %53 = shl nsw i64 %52, 2
  %54 = tail call ptr @cli_max_realloc(ptr noundef %.pre, i64 noundef %53) #21
  %55 = icmp eq ptr %54, null
  br i1 %55, label %72, label %56

56:                                               ; preds = %._crit_edge
  store ptr %54, ptr %0, align 8
  %57 = getelementptr inbounds i8, ptr %.05684, i64 8
  %58 = load i32, ptr %57, align 8
  %59 = load i32, ptr %21, align 4
  %60 = add nsw i32 %59, 1
  store i32 %60, ptr %21, align 4
  %61 = sext i32 %59 to i64
  %62 = getelementptr inbounds i32, ptr %54, i64 %61
  store i32 %58, ptr %62, align 4
  %63 = load i32, ptr %21, align 4
  tail call void (ptr, ...) @cli_dbgmsg(ptr noundef nonnull @.str.45, i32 noundef %63, ptr noundef nonnull %22) #21
  br label %72

64:                                               ; preds = %38
  %65 = icmp sgt i32 %39, %.06082
  %spec.select = tail call i32 @llvm.smax.i32(i32 %39, i32 %.06082)
  %spec.select71 = select i1 %65, ptr %25, ptr %.05883
  br label %66

66:                                               ; preds = %64, %35, %24
  %.161 = phi i32 [ %.06082, %24 ], [ %.06082, %35 ], [ %spec.select, %64 ]
  %.159 = phi ptr [ %.05883, %24 ], [ %.05883, %35 ], [ %spec.select71, %64 ]
  %67 = getelementptr inbounds i8, ptr %.05684, i64 16
  %68 = load ptr, ptr %67, align 8
  %.not69 = icmp eq ptr %68, null
  br i1 %.not69, label %.thread70.loopexit, label %24

.thread70.loopexit:                               ; preds = %66
  %69 = icmp sgt i32 %.161, 49
  br i1 %69, label %70, label %71

70:                                               ; preds = %.thread70.loopexit
  tail call void (ptr, ...) @cli_dbgmsg(ptr noundef nonnull @.str.46, ptr noundef nonnull %22, ptr noundef %.159, i32 noundef %.161) #21
  tail call void @messageSetEncoding(ptr noundef %0, ptr noundef %.159)
  br label %72

71:                                               ; preds = %.thread70.loopexit
  tail call void (ptr, ...) @cli_dbgmsg(ptr noundef nonnull @.str.47, ptr noundef nonnull %22) #21
  tail call void @messageSetEncoding(ptr noundef %0, ptr noundef nonnull @.str.48)
  tail call void @messageSetEncoding(ptr noundef %0, ptr noundef nonnull @.str.49)
  br label %72

72:                                               ; preds = %50, %56, %._crit_edge, %70, %71
  tail call void @free(ptr noundef %22) #21
  %73 = add nuw nsw i32 %23, 1
  %74 = tail call ptr @cli_strtok(ptr noundef nonnull %.1, i32 noundef %23, ptr noundef nonnull @.str.42) #21
  %.not68 = icmp eq ptr %74, null
  br i1 %.not68, label %.loopexit, label %.preheader72

.loopexit:                                        ; preds = %72, %19, %7
  ret void
}